; Function Attrs: mustprogress uwtable
define hidden noundef zeroext i1 @_ZNK4cvc58internal6theory17DifficultyManager19needsCandidateModelEv(ptr noundef nonnull align 8 dereferenceable(256) %this) local_unnamed_addr #3 align 2 {
entry:
  %call = tail call noundef nonnull align 8 dereferenceable(392) ptr @_ZNK4cvc58internal6EnvObj7optionsEv(ptr noundef nonnull align 8 dereferenceable(16) %this)
  %smt = getelementptr inbounds i8, ptr %call, i64 352
  %0 = load ptr, ptr %smt, align 8
  %difficultyMode = getelementptr inbounds i8, ptr %0, i64 52
  %1 = load i32, ptr %difficultyMode, align 4
  %cmp = icmp eq i32 %1, 2
  ret i1 %cmp
}